; ModuleID = '11/494.c'
source_filename = "11/494.c"
target datalayout = "e-m:e-p270:32:32-p271:32:32-p272:64:64-i64:64-f80:128-n8:16:32:64-S128"
target triple = "x86_64-pc-linux-gnu"

@.str = private unnamed_addr constant [9 x i8] c"%d %d %d\00", align 1
@.str.1 = private unnamed_addr constant [4 x i8] c"%d\0A\00", align 1

; Function Attrs: noinline nounwind uwtable
define dso_local i32 @main(i32 %0, i8** %1) #0 {
  %3 = alloca i32, align 4
  %4 = alloca i32, align 4
  %5 = alloca i8**, align 8
  %6 = alloca i32, align 4
  %7 = alloca i32, align 4
  %8 = alloca i32, align 4
  %9 = alloca i32, align 4
  %10 = alloca [13 x i32], align 16
  %11 = alloca i32, align 4
  %12 = alloca i32, align 4
  store i32 0, i32* %3, align 4
  store i32 %0, i32* %4, align 4
  store i8** %1, i8*** %5, align 8
  %13 = getelementptr inbounds [13 x i32], [13 x i32]* %10, i64 0, i64 0
  store i32 0, i32* %13, align 16
  %14 = getelementptr inbounds [13 x i32], [13 x i32]* %10, i64 0, i64 1
  store i32 31, i32* %14, align 4
  %15 = getelementptr inbounds [13 x i32], [13 x i32]* %10, i64 0, i64 3
  store i32 31, i32* %15, align 4
  %16 = getelementptr inbounds [13 x i32], [13 x i32]* %10, i64 0, i64 4
  store i32 30, i32* %16, align 16
  %17 = getelementptr inbounds [13 x i32], [13 x i32]* %10, i64 0, i64 5
  store i32 31, i32* %17, align 4
  %18 = getelementptr inbounds [13 x i32], [13 x i32]* %10, i64 0, i64 6
  store i32 30, i32* %18, align 8
  %19 = getelementptr inbounds [13 x i32], [13 x i32]* %10, i64 0, i64 7
  store i32 31, i32* %19, align 4
  %20 = getelementptr inbounds [13 x i32], [13 x i32]* %10, i64 0, i64 8
  store i32 31, i32* %20, align 16
  %21 = getelementptr inbounds [13 x i32], [13 x i32]* %10, i64 0, i64 9
  store i32 30, i32* %21, align 4
  %22 = getelementptr inbounds [13 x i32], [13 x i32]* %10, i64 0, i64 10
  store i32 31, i32* %22, align 8
  %23 = getelementptr inbounds [13 x i32], [13 x i32]* %10, i64 0, i64 11
  store i32 30, i32* %23, align 4
  %24 = getelementptr inbounds [13 x i32], [13 x i32]* %10, i64 0, i64 12
  store i32 31, i32* %24, align 16
  store i32 0, i32* %11, align 4
  %25 = call i32 (i8*, ...) @__isoc99_scanf(i8* getelementptr inbounds ([9 x i8], [9 x i8]* @.str, i64 0, i64 0), i32* %6, i32* %7, i32* %8)
  store i32 1, i32* %9, align 4
  br label %26

26:                                               ; preds = %59, %2
  %27 = load i32, i32* %9, align 4
  %28 = load i32, i32* %7, align 4
  %29 = icmp slt i32 %27, %28
  br i1 %29, label %30, label %62

30:                                               ; preds = %26
  %31 = load i32, i32* %6, align 4
  %32 = srem i32 %31, 4
  %33 = icmp eq i32 %32, 0
  br i1 %33, label %34, label %38

34:                                               ; preds = %30
  %35 = load i32, i32* %6, align 4
  %36 = srem i32 %35, 100
  %37 = icmp ne i32 %36, 0
  br i1 %37, label %42, label %38

38:                                               ; preds = %34, %30
  %39 = load i32, i32* %6, align 4
  %40 = srem i32 %39, 400
  %41 = icmp eq i32 %40, 0
  br i1 %41, label %42, label %50

42:                                               ; preds = %38, %34
  %43 = getelementptr inbounds [13 x i32], [13 x i32]* %10, i64 0, i64 2
  store i32 29, i32* %43, align 8
  %44 = load i32, i32* %9, align 4
  %45 = sext i32 %44 to i64
  %46 = getelementptr inbounds [13 x i32], [13 x i32]* %10, i64 0, i64 %45
  %47 = load i32, i32* %46, align 4
  %48 = load i32, i32* %11, align 4
  %49 = add nsw i32 %47, %48
  store i32 %49, i32* %11, align 4
  br label %58

50:                                               ; preds = %38
  %51 = getelementptr inbounds [13 x i32], [13 x i32]* %10, i64 0, i64 2
  store i32 28, i32* %51, align 8
  %52 = load i32, i32* %9, align 4
  %53 = sext i32 %52 to i64
  %54 = getelementptr inbounds [13 x i32], [13 x i32]* %10, i64 0, i64 %53
  %55 = load i32, i32* %54, align 4
  %56 = load i32, i32* %11, align 4
  %57 = add nsw i32 %55, %56
  store i32 %57, i32* %11, align 4
  br label %58

58:                                               ; preds = %50, %42
  br label %59

59:                                               ; preds = %58
  %60 = load i32, i32* %9, align 4
  %61 = add nsw i32 %60, 1
  store i32 %61, i32* %9, align 4
  br label %26

62:                                               ; preds = %26
  %63 = load i32, i32* %11, align 4
  %64 = load i32, i32* %8, align 4
  %65 = add nsw i32 %63, %64
  store i32 %65, i32* %12, align 4
  %66 = load i32, i32* %12, align 4
  %67 = call i32 (i8*, ...) @printf(i8* getelementptr inbounds ([4 x i8], [4 x i8]* @.str.1, i64 0, i64 0), i32 %66)
  ret i32 0
}

declare dso_local i32 @__isoc99_scanf(i8*, ...) #1

declare dso_local i32 @printf(i8*, ...) #1


!llvm.module.flags = !{!0}
!llvm.ident = !{!1}

!0 = !{i32 1, !"wchar_size", i32 4}
!1 = !{!"clang version 10.0.0-4ubuntu1 "}
